target datalayout = "e-m:e-p270:32:32-p271:32:32-p272:64:64-i64:64-i128:128-f80:128-n8:16:32:64-S128"
target triple = "x86_64-pc-linux-gnu"

%struct.mbedtls_ecp_keypair = type { %struct.mbedtls_ecp_group, %struct.mbedtls_mpi, %struct.mbedtls_ecp_point }
%struct.mbedtls_ecp_group = type { i32, %struct.mbedtls_mpi, %struct.mbedtls_mpi, %struct.mbedtls_mpi, %struct.mbedtls_ecp_point, %struct.mbedtls_mpi, i64, i64, i32, ptr, ptr, ptr, ptr, ptr, i64 }
%struct.mbedtls_mpi = type { ptr, i16, i16 }
%struct.mbedtls_ecp_point = type { %struct.mbedtls_mpi, %struct.mbedtls_mpi, %struct.mbedtls_mpi }
%struct.psa_key_attributes_s = type { i16, i16, i32, %struct.psa_key_policy_s, i32 }
%struct.psa_key_policy_s = type { i32, i32, i32 }

; Function Attrs: nounwind uwtable
define hidden i32 @mbedtls_psa_ecp_load_public_part(ptr noundef %0) #0 {
  %2 = alloca ptr, align 8
  %3 = alloca i32, align 4
  store ptr %0, ptr %2, align 8, !tbaa !17
  call void @llvm.lifetime.start.p0(i64 4, ptr %3) #7
  store i32 0, ptr %3, align 4, !tbaa !15
  %4 = load ptr, ptr %2, align 8, !tbaa !17
  %5 = getelementptr inbounds nuw %struct.mbedtls_ecp_keypair, ptr %4, i32 0, i32 2
  %6 = call i32 @mbedtls_ecp_is_zero(ptr noundef %5)
  %7 = icmp ne i32 %6, 0
  br i1 %7, label %8, label %19

8:                                                ; preds = %1
  %9 = load ptr, ptr %2, align 8, !tbaa !17
  %10 = getelementptr inbounds nuw %struct.mbedtls_ecp_keypair, ptr %9, i32 0, i32 0
  %11 = load ptr, ptr %2, align 8, !tbaa !17
  %12 = getelementptr inbounds nuw %struct.mbedtls_ecp_keypair, ptr %11, i32 0, i32 2
  %13 = load ptr, ptr %2, align 8, !tbaa !17
  %14 = getelementptr inbounds nuw %struct.mbedtls_ecp_keypair, ptr %13, i32 0, i32 1
  %15 = load ptr, ptr %2, align 8, !tbaa !17
  %16 = getelementptr inbounds nuw %struct.mbedtls_ecp_keypair, ptr %15, i32 0, i32 0
  %17 = getelementptr inbounds nuw %struct.mbedtls_ecp_group, ptr %16, i32 0, i32 4
  %18 = call i32 @mbedtls_ecp_mul(ptr noundef %10, ptr noundef %12, ptr noundef %14, ptr noundef %17, ptr noundef @mbedtls_psa_get_random, ptr noundef null)
  store i32 %18, ptr %3, align 4, !tbaa !15
  br label %19

19:                                               ; preds = %8, %1
  %20 = load i32, ptr %3, align 4, !tbaa !15
  %21 = call i32 @mbedtls_to_psa_error(i32 noundef %20)
  call void @llvm.lifetime.end.p0(i64 4, ptr %3) #7
  ret i32 %21
}

; Function Attrs: nounwind uwtable
define hidden i32 @mbedtls_psa_ecdsa_verify_hash(ptr noundef %0, ptr noundef %1, i64 noundef %2, i32 noundef %3, ptr noundef %4, i64 noundef %5, ptr noundef %6, i64 noundef %7) #0 {
  %9 = alloca i32, align 4
  %10 = alloca ptr, align 8
  %11 = alloca ptr, align 8
  %12 = alloca i64, align 8
  %13 = alloca i32, align 4
  %14 = alloca ptr, align 8
  %15 = alloca i64, align 8
  %16 = alloca ptr, align 8
  %17 = alloca i64, align 8
  %18 = alloca i32, align 4
  %19 = alloca ptr, align 8
  %20 = alloca i64, align 8
  %21 = alloca %struct.mbedtls_mpi, align 8
  %22 = alloca %struct.mbedtls_mpi, align 8
  %23 = alloca i32, align 4
  store ptr %0, ptr %10, align 8, !tbaa !28
  store ptr %1, ptr %11, align 8, !tbaa !9
  store i64 %2, ptr %12, align 8, !tbaa !7
  store i32 %3, ptr %13, align 4, !tbaa !15
  store ptr %4, ptr %14, align 8, !tbaa !9
  store i64 %5, ptr %15, align 8, !tbaa !7
  store ptr %6, ptr %16, align 8, !tbaa !9
  store i64 %7, ptr %17, align 8, !tbaa !7
  call void @llvm.lifetime.start.p0(i64 4, ptr %18) #7
  store i32 -151, ptr %18, align 4, !tbaa !15
  call void @llvm.lifetime.start.p0(i64 8, ptr %19) #7
  store ptr null, ptr %19, align 8, !tbaa !17
  call void @llvm.lifetime.start.p0(i64 8, ptr %20) #7
  call void @llvm.lifetime.start.p0(i64 16, ptr %21) #7
  call void @llvm.lifetime.start.p0(i64 16, ptr %22) #7
  %24 = load ptr, ptr %10, align 8, !tbaa !28
  %25 = getelementptr inbounds nuw %struct.psa_key_attributes_s, ptr %24, i32 0, i32 0
  %26 = load i16, ptr %25, align 4, !tbaa !30
  %27 = load ptr, ptr %10, align 8, !tbaa !28
  %28 = getelementptr inbounds nuw %struct.psa_key_attributes_s, ptr %27, i32 0, i32 1
  %29 = load i16, ptr %28, align 2, !tbaa !33
  %30 = zext i16 %29 to i64
  %31 = load ptr, ptr %11, align 8, !tbaa !9
  %32 = load i64, ptr %12, align 8, !tbaa !7
  %33 = call i32 @mbedtls_psa_ecp_load_representation(i16 noundef zeroext %26, i64 noundef %30, ptr noundef %31, i64 noundef %32, ptr noundef %19)
  store i32 %33, ptr %18, align 4, !tbaa !15
  %34 = load i32, ptr %18, align 4, !tbaa !15
  %35 = icmp ne i32 %34, 0
  br i1 %35, label %36, label %38

36:                                               ; preds = %8
  %37 = load i32, ptr %18, align 4, !tbaa !15
  store i32 %37, ptr %9, align 4
  store i32 1, ptr %23, align 4
  br label %87

38:                                               ; preds = %8
  %39 = load ptr, ptr %19, align 8, !tbaa !17
  %40 = getelementptr inbounds nuw %struct.mbedtls_ecp_keypair, ptr %39, i32 0, i32 0
  %41 = getelementptr inbounds nuw %struct.mbedtls_ecp_group, ptr %40, i32 0, i32 6
  %42 = load i64, ptr %41, align 8, !tbaa !37
  %43 = add i64 %42, 7
  %44 = udiv i64 %43, 8
  store i64 %44, ptr %20, align 8, !tbaa !7
  call void @mbedtls_mpi_init(ptr noundef %21)
  call void @mbedtls_mpi_init(ptr noundef %22)
  %45 = load i64, ptr %17, align 8, !tbaa !7
  %46 = load i64, ptr %20, align 8, !tbaa !7
  %47 = mul i64 2, %46
  %48 = icmp ne i64 %45, %47
  br i1 %48, label %49, label %50

49:                                               ; preds = %38
  store i32 -149, ptr %18, align 4, !tbaa !15
  br label %83

50:                                               ; preds = %38
  %51 = load ptr, ptr %16, align 8, !tbaa !9
  %52 = load i64, ptr %20, align 8, !tbaa !7
  %53 = call i32 @mbedtls_mpi_read_binary(ptr noundef %21, ptr noundef %51, i64 noundef %52)
  %54 = call i32 @mbedtls_to_psa_error(i32 noundef %53)
  store i32 %54, ptr %18, align 4, !tbaa !15
  %55 = load i32, ptr %18, align 4, !tbaa !15
  %56 = icmp ne i32 %55, 0
  br i1 %56, label %57, label %58

57:                                               ; preds = %50
  br label %83

58:                                               ; preds = %50
  %59 = load ptr, ptr %16, align 8, !tbaa !9
  %60 = load i64, ptr %20, align 8, !tbaa !7
  %61 = getelementptr inbounds nuw i8, ptr %59, i64 %60
  %62 = load i64, ptr %20, align 8, !tbaa !7
  %63 = call i32 @mbedtls_mpi_read_binary(ptr noundef %22, ptr noundef %61, i64 noundef %62)
  %64 = call i32 @mbedtls_to_psa_error(i32 noundef %63)
  store i32 %64, ptr %18, align 4, !tbaa !15
  %65 = load i32, ptr %18, align 4, !tbaa !15
  %66 = icmp ne i32 %65, 0
  br i1 %66, label %67, label %68

67:                                               ; preds = %58
  br label %83

68:                                               ; preds = %58
  %69 = load ptr, ptr %19, align 8, !tbaa !17
  %70 = call i32 @mbedtls_psa_ecp_load_public_part(ptr noundef %69)
  store i32 %70, ptr %18, align 4, !tbaa !15
  %71 = load i32, ptr %18, align 4, !tbaa !15
  %72 = icmp ne i32 %71, 0
  br i1 %72, label %73, label %74

73:                                               ; preds = %68
  br label %83

74:                                               ; preds = %68
  %75 = load ptr, ptr %19, align 8, !tbaa !17
  %76 = getelementptr inbounds nuw %struct.mbedtls_ecp_keypair, ptr %75, i32 0, i32 0
  %77 = load ptr, ptr %14, align 8, !tbaa !9
  %78 = load i64, ptr %15, align 8, !tbaa !7
  %79 = load ptr, ptr %19, align 8, !tbaa !17
  %80 = getelementptr inbounds nuw %struct.mbedtls_ecp_keypair, ptr %79, i32 0, i32 2
  %81 = call i32 @mbedtls_ecdsa_verify(ptr noundef %76, ptr noundef %77, i64 noundef %78, ptr noundef %80, ptr noundef %21, ptr noundef %22)
  %82 = call i32 @mbedtls_to_psa_error(i32 noundef %81)
  store i32 %82, ptr %18, align 4, !tbaa !15
  br label %83

83:                                               ; preds = %74, %73, %67, %57, %49
  call void @mbedtls_mpi_free(ptr noundef %21)
  call void @mbedtls_mpi_free(ptr noundef %22)
  %84 = load ptr, ptr %19, align 8, !tbaa !17
  call void @mbedtls_ecp_keypair_free(ptr noundef %84)
  %85 = load ptr, ptr %19, align 8, !tbaa !17
  call void @free(ptr noundef %85) #7
  %86 = load i32, ptr %18, align 4, !tbaa !15
  store i32 %86, ptr %9, align 4
  store i32 1, ptr %23, align 4
  br label %87

87:                                               ; preds = %83, %36
  call void @llvm.lifetime.end.p0(i64 16, ptr %22) #7
  call void @llvm.lifetime.end.p0(i64 16, ptr %21) #7
  call void @llvm.lifetime.end.p0(i64 8, ptr %20) #7
  call void @llvm.lifetime.end.p0(i64 8, ptr %19) #7
  call void @llvm.lifetime.end.p0(i64 4, ptr %18) #7
  %88 = load i32, ptr %9, align 4
  ret i32 %88
}