; Function Attrs: nounwind uwtable
define hidden i32 @mbedtls_psa_ecdsa_verify_hash(ptr noundef readonly captures(none) %0, ptr noundef %1, i64 noundef %2, i32 noundef %3, ptr noundef %4, i64 noundef %5, ptr noundef %6, i64 noundef %7) local_unnamed_addr #0 {
  %9 = alloca ptr, align 8
  %10 = alloca %struct.mbedtls_mpi, align 8
  %11 = alloca %struct.mbedtls_mpi, align 8
  call void @llvm.lifetime.start.p0(i64 8, ptr nonnull %9) #7
  store ptr null, ptr %9, align 8, !tbaa !16
  call void @llvm.lifetime.start.p0(i64 16, ptr nonnull %10) #7
  call void @llvm.lifetime.start.p0(i64 16, ptr nonnull %11) #7
  %12 = load i16, ptr %0, align 4, !tbaa !18
  %13 = getelementptr inbounds nuw i8, ptr %0, i64 2
  %14 = load i16, ptr %13, align 2, !tbaa !21
  %15 = zext i16 %14 to i64
  %16 = call i32 @mbedtls_psa_ecp_load_representation(i16 noundef zeroext %12, i64 noundef %15, ptr noundef %1, i64 noundef %2, ptr noundef nonnull %9)
  %.not = icmp eq i32 %16, 0
  br i1 %.not, label %17, label %43

17:                                               ; preds = %8
  %18 = load ptr, ptr %9, align 8, !tbaa !16
  %19 = getelementptr inbounds nuw i8, ptr %18, i64 120
  %20 = load i64, ptr %19, align 8, !tbaa !24
  %21 = add i64 %20, 7
  %22 = lshr i64 %21, 3
  call void @mbedtls_mpi_init(ptr noundef nonnull %10) #7
  call void @mbedtls_mpi_init(ptr noundef nonnull %11) #7
  %23 = shl nuw nsw i64 %22, 1
  %.not24 = icmp eq i64 %7, %23
  br i1 %.not24, label %24, label %42

24:                                               ; preds = %17
  %25 = call i32 @mbedtls_mpi_read_binary(ptr noundef nonnull %10, ptr noundef %6, i64 noundef %22) #7
  %26 = call i32 @mbedtls_to_psa_error(i32 noundef %25) #7
  %.not25 = icmp eq i32 %26, 0
  br i1 %.not25, label %27, label %42

27:                                               ; preds = %24
  %28 = getelementptr inbounds nuw i8, ptr %6, i64 %22
  %29 = call i32 @mbedtls_mpi_read_binary(ptr noundef nonnull %11, ptr noundef %28, i64 noundef %22) #7
  %30 = call i32 @mbedtls_to_psa_error(i32 noundef %29) #7
  %.not26 = icmp eq i32 %30, 0
  br i1 %.not26, label %31, label %42

31:                                               ; preds = %27
  %32 = getelementptr inbounds nuw i8, ptr %18, i64 208
  %33 = call i32 @mbedtls_ecp_is_zero(ptr noundef nonnull %32) #7
  %.not.i = icmp eq i32 %33, 0
  br i1 %.not.i, label %mbedtls_psa_ecp_load_public_part.exit, label %34

34:                                               ; preds = %31
  %35 = getelementptr inbounds nuw i8, ptr %18, i64 192
  %36 = getelementptr inbounds nuw i8, ptr %18, i64 56
  %37 = call i32 @mbedtls_ecp_mul(ptr noundef nonnull %18, ptr noundef nonnull %32, ptr noundef nonnull %35, ptr noundef nonnull %36, ptr noundef nonnull @mbedtls_psa_get_random, ptr noundef null) #7
  br label %mbedtls_psa_ecp_load_public_part.exit

mbedtls_psa_ecp_load_public_part.exit:            ; preds = %31, %34
  %.0.i = phi i32 [ %37, %34 ], [ 0, %31 ]
  %38 = call i32 @mbedtls_to_psa_error(i32 noundef %.0.i) #7
  %.not27 = icmp eq i32 %38, 0
  br i1 %.not27, label %39, label %42

39:                                               ; preds = %mbedtls_psa_ecp_load_public_part.exit
  %40 = call i32 @mbedtls_ecdsa_verify(ptr noundef nonnull %18, ptr noundef %4, i64 noundef %5, ptr noundef nonnull %32, ptr noundef nonnull %10, ptr noundef nonnull %11) #7
  %41 = call i32 @mbedtls_to_psa_error(i32 noundef %40) #7
  br label %42

42:                                               ; preds = %17, %mbedtls_psa_ecp_load_public_part.exit, %27, %24, %39
  %.019 = phi i32 [ %26, %24 ], [ %30, %27 ], [ %38, %mbedtls_psa_ecp_load_public_part.exit ], [ %41, %39 ], [ -149, %17 ]
  call void @mbedtls_mpi_free(ptr noundef nonnull %10) #7
  call void @mbedtls_mpi_free(ptr noundef nonnull %11) #7
  call void @mbedtls_ecp_keypair_free(ptr noundef nonnull %18) #7
  call void @free(ptr noundef nonnull %18) #7
  br label %43

43:                                               ; preds = %8, %42
  %.0 = phi i32 [ %.019, %42 ], [ %16, %8 ]
  call void @llvm.lifetime.end.p0(i64 16, ptr nonnull %11) #7
  call void @llvm.lifetime.end.p0(i64 16, ptr nonnull %10) #7
  call void @llvm.lifetime.end.p0(i64 8, ptr nonnull %9) #7
  ret i32 %.0
}